; Function Attrs: nounwind uwtable
define hidden i32 @exr_attr_string_vector_set_entry(ptr noundef %0, ptr noundef readonly %1, i32 noundef %2, ptr noundef %3) local_unnamed_addr #0 {
  %.not = icmp eq ptr %3, null
  br i1 %.not, label %.split, label %.split7

.split:                                           ; preds = %4
  %.not.i = icmp eq ptr %0, null
  br i1 %.not.i, label %exr_attr_string_vector_set_entry_with_length.exit, label %5

5:                                                ; preds = %.split
  %.not22.i = icmp eq ptr %1, null
  br i1 %.not22.i, label %6, label %10

6:                                                ; preds = %5
  %7 = getelementptr inbounds nuw i8, ptr %0, i64 64
  %8 = load ptr, ptr %7, align 8, !tbaa !3
  %9 = tail call i32 %8(ptr noundef nonnull %0, i32 noundef 3, ptr noundef nonnull @.str) #5
  br label %exr_attr_string_vector_set_entry_with_length.exit

10:                                               ; preds = %5
  %11 = icmp sgt i32 %2, -1
  %.pre.i = load i32, ptr %1, align 8, !tbaa !27
  %.not23.i = icmp slt i32 %2, %.pre.i
  %or.cond.i = select i1 %11, i1 %.not23.i, i1 false
  br i1 %or.cond.i, label %16, label %12

12:                                               ; preds = %10
  %13 = getelementptr inbounds nuw i8, ptr %0, i64 72
  %14 = load ptr, ptr %13, align 8, !tbaa !22
  %15 = tail call i32 (ptr, i32, ptr, ...) %14(ptr noundef nonnull %0, i32 noundef 3, ptr noundef nonnull @.str.5, i32 noundef %2, i32 noundef %.pre.i, ptr noundef nonnull @.str.6, i32 noundef 0) #5
  br label %exr_attr_string_vector_set_entry_with_length.exit

16:                                               ; preds = %10
  %17 = getelementptr inbounds nuw i8, ptr %1, i64 8
  %18 = load ptr, ptr %17, align 8, !tbaa !24
  %19 = zext nneg i32 %2 to i64
  %20 = getelementptr inbounds nuw %struct.exr_attr_string_t, ptr %18, i64 %19
  %21 = tail call i32 @exr_attr_string_set_with_length(ptr noundef nonnull %0, ptr noundef %20, ptr noundef null, i32 noundef 0) #5
  br label %exr_attr_string_vector_set_entry_with_length.exit

.split7:                                          ; preds = %4
  %22 = tail call i64 @strlen(ptr noundef nonnull dereferenceable(1) %3) #6
  %23 = trunc i64 %22 to i32
  %.not.i8 = icmp eq ptr %0, null
  br i1 %.not.i8, label %exr_attr_string_vector_set_entry_with_length.exit, label %24

24:                                               ; preds = %.split7
  %.not22.i9 = icmp eq ptr %1, null
  br i1 %.not22.i9, label %25, label %29

25:                                               ; preds = %24
  %26 = getelementptr inbounds nuw i8, ptr %0, i64 64
  %27 = load ptr, ptr %26, align 8, !tbaa !3
  %28 = tail call i32 %27(ptr noundef nonnull %0, i32 noundef 3, ptr noundef nonnull @.str) #5
  br label %exr_attr_string_vector_set_entry_with_length.exit

29:                                               ; preds = %24
  %30 = icmp sgt i32 %2, -1
  %.pre.i10 = load i32, ptr %1, align 8, !tbaa !27
  %.not23.i11 = icmp slt i32 %2, %.pre.i10
  %or.cond.i12 = select i1 %30, i1 %.not23.i11, i1 false
  br i1 %or.cond.i12, label %35, label %31

31:                                               ; preds = %29
  %32 = getelementptr inbounds nuw i8, ptr %0, i64 72
  %33 = load ptr, ptr %32, align 8, !tbaa !22
  %34 = tail call i32 (ptr, i32, ptr, ...) %33(ptr noundef nonnull %0, i32 noundef 3, ptr noundef nonnull @.str.5, i32 noundef %2, i32 noundef %.pre.i10, ptr noundef nonnull %3, i32 noundef %23) #5
  br label %exr_attr_string_vector_set_entry_with_length.exit

35:                                               ; preds = %29
  %36 = getelementptr inbounds nuw i8, ptr %1, i64 8
  %37 = load ptr, ptr %36, align 8, !tbaa !24
  %38 = zext nneg i32 %2 to i64
  %39 = getelementptr inbounds nuw %struct.exr_attr_string_t, ptr %37, i64 %38
  %40 = tail call i32 @exr_attr_string_set_with_length(ptr noundef nonnull %0, ptr noundef %39, ptr noundef nonnull %3, i32 noundef %23) #5
  br label %exr_attr_string_vector_set_entry_with_length.exit

exr_attr_string_vector_set_entry_with_length.exit: ; preds = %35, %31, %25, %.split7, %16, %12, %6, %.split
  %phi.call = phi i32 [ %15, %12 ], [ %21, %16 ], [ %9, %6 ], [ 2, %.split ], [ %34, %31 ], [ %40, %35 ], [ %28, %25 ], [ 2, %.split7 ]
  ret i32 %phi.call
}